; Function Attrs: mustprogress nounwind uwtable
define void @_ZN5osgeo4proj9operation19CoordinateOperationD2Ev(ptr noundef nonnull align 8 dereferenceable(72) initializes((0, 8), (16, 32), (48, 64)) %0) unnamed_addr #1 align 2 personality ptr @__gxx_personality_v0 {
  store ptr getelementptr inbounds nuw inrange(-16, 56) (i8, ptr @_ZTVN5osgeo4proj9operation19CoordinateOperationE, i64 16), ptr %0, align 8, !tbaa !3
  %2 = getelementptr inbounds nuw i8, ptr %0, i64 16
  store ptr getelementptr inbounds nuw inrange(-16, 24) (i8, ptr @_ZTVN5osgeo4proj9operation19CoordinateOperationE, i64 88), ptr %2, align 8, !tbaa !3
  %3 = getelementptr inbounds nuw i8, ptr %0, i64 24
  store ptr getelementptr inbounds nuw inrange(-16, 24) (i8, ptr @_ZTVN5osgeo4proj9operation19CoordinateOperationE, i64 128), ptr %3, align 8, !tbaa !3
  %4 = getelementptr inbounds nuw i8, ptr %0, i64 48
  store ptr getelementptr inbounds nuw inrange(-16, 24) (i8, ptr @_ZTVN5osgeo4proj9operation19CoordinateOperationE, i64 168), ptr %4, align 8, !tbaa !3
  %5 = getelementptr inbounds nuw i8, ptr %0, i64 56
  store ptr getelementptr inbounds nuw inrange(-16, 24) (i8, ptr @_ZTVN5osgeo4proj9operation19CoordinateOperationE, i64 208), ptr %5, align 8, !tbaa !3
  %6 = getelementptr inbounds nuw i8, ptr %0, i64 64
  %7 = load ptr, ptr %6, align 8, !tbaa !27
  %.not.i = icmp eq ptr %7, null
  br i1 %.not.i, label %_ZNSt10unique_ptrIN5osgeo4proj9operation19CoordinateOperation7PrivateESt14default_deleteIS4_EED2Ev.exit, label %_ZNKSt14default_deleteIN5osgeo4proj9operation19CoordinateOperation7PrivateEEclEPS4_.exit.i

_ZNKSt14default_deleteIN5osgeo4proj9operation19CoordinateOperation7PrivateEEclEPS4_.exit.i: ; preds = %1
  tail call void @_ZN5osgeo4proj9operation19CoordinateOperation7PrivateD2Ev(ptr noundef nonnull align 8 dereferenceable(160) %7) #46
  tail call void @_ZdlPvm(ptr noundef nonnull %7, i64 noundef 160) #47
  br label %_ZNSt10unique_ptrIN5osgeo4proj9operation19CoordinateOperation7PrivateESt14default_deleteIS4_EED2Ev.exit

_ZNSt10unique_ptrIN5osgeo4proj9operation19CoordinateOperation7PrivateESt14default_deleteIS4_EED2Ev.exit: ; preds = %1, %_ZNKSt14default_deleteIN5osgeo4proj9operation19CoordinateOperation7PrivateEEclEPS4_.exit.i
  store ptr null, ptr %6, align 8, !tbaa !27
  tail call void @_ZN5osgeo4proj2io15IJSONExportableD2Ev(ptr noundef nonnull align 8 dereferenceable(8) %5) #46
  tail call void @_ZN5osgeo4proj2io21IPROJStringExportableD2Ev(ptr noundef nonnull align 8 dereferenceable(8) %4) #46
  tail call void @_ZN5osgeo4proj6common11ObjectUsageD2Ev(ptr noundef nonnull align 8 dereferenceable(48) %0) #46
  ret void
}